; Function Attrs: nofree norecurse nosync nounwind memory(argmem: read, inaccessiblemem: readwrite) uwtable
define internal i32 @Disto16x16_C(ptr noalias noundef readonly captures(none) %0, ptr noalias noundef readonly captures(none) %1, ptr noalias noundef readonly captures(none) %2) #6 {
  %4 = alloca [16 x i32], align 16
  %5 = alloca [16 x i32], align 16
  br label %.preheader

.preheader:                                       ; preds = %3, %156
  %indvars.iv35 = phi i64 [ 0, %3 ], [ %indvars.iv.next36, %156 ]
  %.01330 = phi i32 [ 0, %3 ], [ %154, %156 ]
  %invariant.gep = getelementptr inbounds nuw i8, ptr %0, i64 %indvars.iv35
  %invariant.gep26 = getelementptr inbounds nuw i8, ptr %1, i64 %indvars.iv35
  br label %6

6:                                                ; preds = %.preheader, %TTransform.exit
  %indvars.iv = phi i64 [ 0, %.preheader ], [ %indvars.iv.next, %TTransform.exit ]
  %.128 = phi i32 [ %.01330, %.preheader ], [ %154, %TTransform.exit ]
  %gep = getelementptr inbounds nuw i8, ptr %invariant.gep, i64 %indvars.iv
  tail call void @llvm.experimental.noalias.scope.decl(metadata !22)
  tail call void @llvm.experimental.noalias.scope.decl(metadata !25)
  tail call void @llvm.experimental.noalias.scope.decl(metadata !27)
  tail call void @llvm.experimental.noalias.scope.decl(metadata !30)
  call void @llvm.lifetime.start.p0(i64 64, ptr nonnull %4) #15, !alias.scope !32, !noalias !34
  br label %7

7:                                                ; preds = %7, %6
  %indvars.iv.i14 = phi i64 [ 0, %6 ], [ %indvars.iv.next.i16, %7 ]
  %.058.i15 = phi ptr [ %gep, %6 ], [ %35, %7 ]
  %8 = load i8, ptr %.058.i15, align 1, !tbaa !14, !alias.scope !35, !noalias !36
  %9 = zext i8 %8 to i32
  %10 = getelementptr inbounds nuw i8, ptr %.058.i15, i64 2
  %11 = load i8, ptr %10, align 1, !tbaa !14, !alias.scope !35, !noalias !36
  %12 = zext i8 %11 to i32
  %13 = add nuw nsw i32 %12, %9
  %14 = getelementptr inbounds nuw i8, ptr %.058.i15, i64 1
  %15 = load i8, ptr %14, align 1, !tbaa !14, !alias.scope !35, !noalias !36
  %16 = zext i8 %15 to i32
  %17 = getelementptr inbounds nuw i8, ptr %.058.i15, i64 3
  %18 = load i8, ptr %17, align 1, !tbaa !14, !alias.scope !35, !noalias !36
  %19 = zext i8 %18 to i32
  %20 = add nuw nsw i32 %19, %16
  %21 = sub nsw i32 %16, %19
  %22 = sub nsw i32 %9, %12
  %23 = add nuw nsw i32 %20, %13
  %24 = shl nuw nsw i64 %indvars.iv.i14, 2
  %25 = getelementptr inbounds nuw [16 x i32], ptr %4, i64 0, i64 %24
  store i32 %23, ptr %25, align 16, !tbaa !3, !alias.scope !32, !noalias !34
  %26 = add nsw i32 %21, %22
  %27 = or disjoint i64 %24, 1
  %28 = getelementptr inbounds nuw [16 x i32], ptr %4, i64 0, i64 %27
  store i32 %26, ptr %28, align 4, !tbaa !3, !alias.scope !32, !noalias !34
  %29 = sub nsw i32 %22, %21
  %30 = or disjoint i64 %24, 2
  %31 = getelementptr inbounds nuw [16 x i32], ptr %4, i64 0, i64 %30
  store i32 %29, ptr %31, align 8, !tbaa !3, !alias.scope !32, !noalias !34
  %32 = sub nsw i32 %13, %20
  %33 = or disjoint i64 %24, 3
  %34 = getelementptr inbounds nuw [16 x i32], ptr %4, i64 0, i64 %33
  store i32 %32, ptr %34, align 4, !tbaa !3, !alias.scope !32, !noalias !34
  %indvars.iv.next.i16 = add nuw nsw i64 %indvars.iv.i14, 1
  %35 = getelementptr inbounds nuw i8, ptr %.058.i15, i64 32
  %exitcond.not.i17 = icmp eq i64 %indvars.iv.next.i16, 4
  br i1 %exitcond.not.i17, label %.preheader.i18, label %7, !llvm.loop !37

.preheader.i18:                                   ; preds = %7, %.preheader.i18
  %indvars.iv63.i19 = phi i64 [ %indvars.iv.next64.i22, %.preheader.i18 ], [ 0, %7 ]
  %.05461.i20 = phi ptr [ %78, %.preheader.i18 ], [ %2, %7 ]
  %.05560.i21 = phi i32 [ %77, %.preheader.i18 ], [ 0, %7 ]
  %36 = getelementptr inbounds nuw [16 x i32], ptr %4, i64 0, i64 %indvars.iv63.i19
  %37 = load i32, ptr %36, align 4, !tbaa !3, !alias.scope !32, !noalias !34
  %38 = or disjoint i64 %indvars.iv63.i19, 8
  %39 = getelementptr inbounds nuw [16 x i32], ptr %4, i64 0, i64 %38
  %40 = load i32, ptr %39, align 4, !tbaa !3, !alias.scope !32, !noalias !34
  %41 = add nsw i32 %40, %37
  %42 = or disjoint i64 %indvars.iv63.i19, 4
  %43 = getelementptr inbounds nuw [16 x i32], ptr %4, i64 0, i64 %42
  %44 = load i32, ptr %43, align 4, !tbaa !3, !alias.scope !32, !noalias !34
  %45 = or disjoint i64 %indvars.iv63.i19, 12
  %46 = getelementptr inbounds nuw [16 x i32], ptr %4, i64 0, i64 %45
  %47 = load i32, ptr %46, align 4, !tbaa !3, !alias.scope !32, !noalias !34
  %48 = add nsw i32 %47, %44
  %49 = sub nsw i32 %44, %47
  %50 = sub nsw i32 %37, %40
  %51 = add nsw i32 %48, %41
  %52 = add nsw i32 %49, %50
  %53 = sub nsw i32 %50, %49
  %54 = sub nsw i32 %41, %48
  %55 = load i16, ptr %.05461.i20, align 2, !tbaa !17, !alias.scope !38, !noalias !39
  %56 = zext i16 %55 to i32
  %57 = tail call i32 @llvm.abs.i32(i32 %51, i1 true)
  %58 = mul nuw nsw i32 %57, %56
  %59 = add nuw nsw i32 %58, %.05560.i21
  %60 = getelementptr inbounds nuw i8, ptr %.05461.i20, i64 8
  %61 = load i16, ptr %60, align 2, !tbaa !17, !alias.scope !38, !noalias !39
  %62 = zext i16 %61 to i32
  %63 = tail call i32 @llvm.abs.i32(i32 %52, i1 true)
  %64 = mul nuw nsw i32 %63, %62
  %65 = add nuw nsw i32 %59, %64
  %66 = getelementptr inbounds nuw i8, ptr %.05461.i20, i64 16
  %67 = load i16, ptr %66, align 2, !tbaa !17, !alias.scope !38, !noalias !39
  %68 = zext i16 %67 to i32
  %69 = tail call i32 @llvm.abs.i32(i32 %53, i1 true)
  %70 = mul nuw nsw i32 %69, %68
  %71 = add nuw nsw i32 %65, %70
  %72 = getelementptr inbounds nuw i8, ptr %.05461.i20, i64 24
  %73 = load i16, ptr %72, align 2, !tbaa !17, !alias.scope !38, !noalias !39
  %74 = zext i16 %73 to i32
  %75 = tail call i32 @llvm.abs.i32(i32 %54, i1 true)
  %76 = mul nuw nsw i32 %75, %74
  %77 = add nuw nsw i32 %71, %76
  %indvars.iv.next64.i22 = add nuw nsw i64 %indvars.iv63.i19, 1
  %78 = getelementptr inbounds nuw i8, ptr %.05461.i20, i64 2
  %exitcond66.not.i23 = icmp eq i64 %indvars.iv.next64.i22, 4
  br i1 %exitcond66.not.i23, label %TTransform.exit24, label %.preheader.i18, !llvm.loop !40

TTransform.exit24:                                ; preds = %.preheader.i18
  %gep27 = getelementptr inbounds nuw i8, ptr %invariant.gep26, i64 %indvars.iv
  call void @llvm.lifetime.end.p0(i64 64, ptr nonnull %4) #15, !alias.scope !32, !noalias !34
  tail call void @llvm.experimental.noalias.scope.decl(metadata !41)
  tail call void @llvm.experimental.noalias.scope.decl(metadata !44)
  call void @llvm.lifetime.start.p0(i64 64, ptr nonnull %5) #15, !alias.scope !46, !noalias !47
  br label %79

79:                                               ; preds = %79, %TTransform.exit24
  %indvars.iv.i = phi i64 [ 0, %TTransform.exit24 ], [ %indvars.iv.next.i, %79 ]
  %.058.i = phi ptr [ %gep27, %TTransform.exit24 ], [ %107, %79 ]
  %80 = load i8, ptr %.058.i, align 1, !tbaa !14, !alias.scope !48, !noalias !49
  %81 = zext i8 %80 to i32
  %82 = getelementptr inbounds nuw i8, ptr %.058.i, i64 2
  %83 = load i8, ptr %82, align 1, !tbaa !14, !alias.scope !48, !noalias !49
  %84 = zext i8 %83 to i32
  %85 = add nuw nsw i32 %84, %81
  %86 = getelementptr inbounds nuw i8, ptr %.058.i, i64 1
  %87 = load i8, ptr %86, align 1, !tbaa !14, !alias.scope !48, !noalias !49
  %88 = zext i8 %87 to i32
  %89 = getelementptr inbounds nuw i8, ptr %.058.i, i64 3
  %90 = load i8, ptr %89, align 1, !tbaa !14, !alias.scope !48, !noalias !49
  %91 = zext i8 %90 to i32
  %92 = add nuw nsw i32 %91, %88
  %93 = sub nsw i32 %88, %91
  %94 = sub nsw i32 %81, %84
  %95 = add nuw nsw i32 %92, %85
  %96 = shl nuw nsw i64 %indvars.iv.i, 2
  %97 = getelementptr inbounds nuw [16 x i32], ptr %5, i64 0, i64 %96
  store i32 %95, ptr %97, align 16, !tbaa !3, !alias.scope !46, !noalias !47
  %98 = add nsw i32 %93, %94
  %99 = or disjoint i64 %96, 1
  %100 = getelementptr inbounds nuw [16 x i32], ptr %5, i64 0, i64 %99
  store i32 %98, ptr %100, align 4, !tbaa !3, !alias.scope !46, !noalias !47
  %101 = sub nsw i32 %94, %93
  %102 = or disjoint i64 %96, 2
  %103 = getelementptr inbounds nuw [16 x i32], ptr %5, i64 0, i64 %102
  store i32 %101, ptr %103, align 8, !tbaa !3, !alias.scope !46, !noalias !47
  %104 = sub nsw i32 %85, %92
  %105 = or disjoint i64 %96, 3
  %106 = getelementptr inbounds nuw [16 x i32], ptr %5, i64 0, i64 %105
  store i32 %104, ptr %106, align 4, !tbaa !3, !alias.scope !46, !noalias !47
  %indvars.iv.next.i = add nuw nsw i64 %indvars.iv.i, 1
  %107 = getelementptr inbounds nuw i8, ptr %.058.i, i64 32
  %exitcond.not.i = icmp eq i64 %indvars.iv.next.i, 4
  br i1 %exitcond.not.i, label %.preheader.i, label %79, !llvm.loop !37

.preheader.i:                                     ; preds = %79, %.preheader.i
  %indvars.iv63.i = phi i64 [ %indvars.iv.next64.i, %.preheader.i ], [ 0, %79 ]
  %.05461.i = phi ptr [ %150, %.preheader.i ], [ %2, %79 ]
  %.05560.i = phi i32 [ %149, %.preheader.i ], [ 0, %79 ]
  %108 = getelementptr inbounds nuw [16 x i32], ptr %5, i64 0, i64 %indvars.iv63.i
  %109 = load i32, ptr %108, align 4, !tbaa !3, !alias.scope !46, !noalias !47
  %110 = or disjoint i64 %indvars.iv63.i, 8
  %111 = getelementptr inbounds nuw [16 x i32], ptr %5, i64 0, i64 %110
  %112 = load i32, ptr %111, align 4, !tbaa !3, !alias.scope !46, !noalias !47
  %113 = add nsw i32 %112, %109
  %114 = or disjoint i64 %indvars.iv63.i, 4
  %115 = getelementptr inbounds nuw [16 x i32], ptr %5, i64 0, i64 %114
  %116 = load i32, ptr %115, align 4, !tbaa !3, !alias.scope !46, !noalias !47
  %117 = or disjoint i64 %indvars.iv63.i, 12
  %118 = getelementptr inbounds nuw [16 x i32], ptr %5, i64 0, i64 %117
  %119 = load i32, ptr %118, align 4, !tbaa !3, !alias.scope !46, !noalias !47
  %120 = add nsw i32 %119, %116
  %121 = sub nsw i32 %116, %119
  %122 = sub nsw i32 %109, %112
  %123 = add nsw i32 %120, %113
  %124 = add nsw i32 %121, %122
  %125 = sub nsw i32 %122, %121
  %126 = sub nsw i32 %113, %120
  %127 = load i16, ptr %.05461.i, align 2, !tbaa !17, !alias.scope !50, !noalias !51
  %128 = zext i16 %127 to i32
  %129 = tail call i32 @llvm.abs.i32(i32 %123, i1 true)
  %130 = mul nuw nsw i32 %129, %128
  %131 = add nuw nsw i32 %130, %.05560.i
  %132 = getelementptr inbounds nuw i8, ptr %.05461.i, i64 8
  %133 = load i16, ptr %132, align 2, !tbaa !17, !alias.scope !50, !noalias !51
  %134 = zext i16 %133 to i32
  %135 = tail call i32 @llvm.abs.i32(i32 %124, i1 true)
  %136 = mul nuw nsw i32 %135, %134
  %137 = add nuw nsw i32 %131, %136
  %138 = getelementptr inbounds nuw i8, ptr %.05461.i, i64 16
  %139 = load i16, ptr %138, align 2, !tbaa !17, !alias.scope !50, !noalias !51
  %140 = zext i16 %139 to i32
  %141 = tail call i32 @llvm.abs.i32(i32 %125, i1 true)
  %142 = mul nuw nsw i32 %141, %140
  %143 = add nuw nsw i32 %137, %142
  %144 = getelementptr inbounds nuw i8, ptr %.05461.i, i64 24
  %145 = load i16, ptr %144, align 2, !tbaa !17, !alias.scope !50, !noalias !51
  %146 = zext i16 %145 to i32
  %147 = tail call i32 @llvm.abs.i32(i32 %126, i1 true)
  %148 = mul nuw nsw i32 %147, %146
  %149 = add nuw nsw i32 %143, %148
  %indvars.iv.next64.i = add nuw nsw i64 %indvars.iv63.i, 1
  %150 = getelementptr inbounds nuw i8, ptr %.05461.i, i64 2
  %exitcond66.not.i = icmp eq i64 %indvars.iv.next64.i, 4
  br i1 %exitcond66.not.i, label %TTransform.exit, label %.preheader.i, !llvm.loop !40

TTransform.exit:                                  ; preds = %.preheader.i
  call void @llvm.lifetime.end.p0(i64 64, ptr nonnull %5) #15, !alias.scope !46, !noalias !47
  %151 = sub nsw i32 %149, %77
  %152 = tail call i32 @llvm.abs.i32(i32 %151, i1 true)
  %153 = lshr i32 %152, 5
  %154 = add nsw i32 %153, %.128
  %indvars.iv.next = add nuw nsw i64 %indvars.iv, 4
  %155 = icmp samesign ult i64 %indvars.iv, 12
  br i1 %155, label %6, label %156, !llvm.loop !52

156:                                              ; preds = %TTransform.exit
  %indvars.iv.next36 = add nuw nsw i64 %indvars.iv35, 128
  %157 = icmp samesign ult i64 %indvars.iv35, 384
  br i1 %157, label %.preheader, label %158, !llvm.loop !53

158:                                              ; preds = %156
  ret i32 %154
}